CCS PCM C Compiler, Version 4.088, 5967               12-jul-17 10:03

               Filename: C:\Users\Administrator\Desktop\Programs\5\Simon.lst

               ROM used: 159 words (2%)
                         Largest free fragment is 2048
               RAM used: 39 (11%) at main() level
                         39 (11%) worst case
               Stack:    0 locations

*
0000:  MOVLW  00
0001:  MOVWF  0A
0002:  GOTO   004
0003:  NOP
.................... #include <16F877.h> 
.................... //////// Standard Header file for the PIC16F877 device //////////////// 
.................... #device PIC16F877 
.................... #list 
....................  
.................... #fuses HS,NOWDT,NOPROTECT,NOLVP 
.................... #use delay(clock=4000000) 
....................  
.................... void main(void){ 
*
0004:  CLRF   04
0005:  BCF    03.7
0006:  MOVLW  1F
0007:  ANDWF  03,F
0008:  BSF    03.5
0009:  BSF    1F.0
000A:  BSF    1F.1
000B:  BSF    1F.2
000C:  BCF    1F.3
....................    int num[28] = {1,4,3,4,2,3,4,2,3,4,1,3,2,1,1,1,3,4,2,3,4,2,3,4,2,3,4,3}; 
*
0010:  MOVLW  01
0011:  MOVWF  21
0012:  MOVLW  04
0013:  MOVWF  22
0014:  MOVLW  03
0015:  MOVWF  23
0016:  MOVLW  04
0017:  MOVWF  24
0018:  MOVLW  02
0019:  MOVWF  25
001A:  MOVLW  03
001B:  MOVWF  26
001C:  MOVLW  04
001D:  MOVWF  27
001E:  MOVLW  02
001F:  MOVWF  28
0020:  MOVLW  03
0021:  MOVWF  29
0022:  MOVLW  04
0023:  MOVWF  2A
0024:  MOVLW  01
0025:  MOVWF  2B
0026:  MOVLW  03
0027:  MOVWF  2C
0028:  MOVLW  02
0029:  MOVWF  2D
002A:  MOVLW  01
002B:  MOVWF  2E
002C:  MOVWF  2F
002D:  MOVWF  30
002E:  MOVLW  03
002F:  MOVWF  31
0030:  MOVLW  04
0031:  MOVWF  32
0032:  MOVLW  02
0033:  MOVWF  33
0034:  MOVLW  03
0035:  MOVWF  34
0036:  MOVLW  04
0037:  MOVWF  35
0038:  MOVLW  02
0039:  MOVWF  36
003A:  MOVLW  03
003B:  MOVWF  37
003C:  MOVLW  04
003D:  MOVWF  38
003E:  MOVLW  02
003F:  MOVWF  39
0040:  MOVLW  03
0041:  MOVWF  3A
0042:  MOVLW  04
0043:  MOVWF  3B
0044:  MOVLW  03
0045:  MOVWF  3C
....................    int16 i; 
....................    int16 x; 
....................    Set_tris_b(0x00); 
0046:  MOVLW  00
0047:  BSF    03.5
0048:  MOVWF  06
....................    Set_tris_c(0xff); 
0049:  MOVLW  FF
004A:  MOVWF  07
004B:  BCF    03.5
004C:  MOVWF  20
....................    while(1){ 
....................        
....................          
....................      for(i=0;i<29;i++){ 
004D:  CLRF   3E
004E:  CLRF   3D
004F:  MOVF   3E,F
0050:  BTFSS  03.2
0051:  GOTO   09D
0052:  MOVF   3D,W
0053:  SUBLW  1C
0054:  BTFSS  03.0
0055:  GOTO   09D
....................       x=num[i]; 
0056:  MOVLW  21
0057:  ADDWF  3D,W
0058:  MOVWF  04
0059:  BCF    03.7
005A:  BTFSC  3E.0
005B:  BSF    03.7
005C:  MOVF   00,W
005D:  CLRF   7A
005E:  MOVWF  3F
005F:  MOVF   7A,W
0060:  MOVWF  40
....................       if(x=1){ 
0061:  CLRF   40
0062:  MOVLW  01
0063:  MOVWF  3F
0064:  IORWF  40,W
0065:  BTFSC  03.2
0066:  GOTO   06F
....................          output_HIGH(PIN_B0); 
0067:  BSF    03.5
0068:  BCF    06.0
0069:  BCF    03.5
006A:  BSF    06.0
....................          output_LOW(PIN_B0); 
006B:  BSF    03.5
006C:  BCF    06.0
006D:  BCF    03.5
006E:  BCF    06.0
....................           
....................       } 
....................       if(x=2){ 
006F:  CLRF   40
0070:  MOVLW  02
0071:  MOVWF  3F
0072:  IORWF  40,W
0073:  BTFSC  03.2
0074:  GOTO   07D
....................          output_HIGH(PIN_B1); 
0075:  BSF    03.5
0076:  BCF    06.1
0077:  BCF    03.5
0078:  BSF    06.1
....................          output_LOW(PIN_B1); 
0079:  BSF    03.5
007A:  BCF    06.1
007B:  BCF    03.5
007C:  BCF    06.1
....................       } 
....................       if(x=3){ 
007D:  CLRF   40
007E:  MOVLW  03
007F:  MOVWF  3F
0080:  IORWF  40,W
0081:  BTFSC  03.2
0082:  GOTO   08B
....................          output_HIGH(PIN_B2); 
0083:  BSF    03.5
0084:  BCF    06.2
0085:  BCF    03.5
0086:  BSF    06.2
....................          output_LOW(PIN_B2); 
0087:  BSF    03.5
0088:  BCF    06.2
0089:  BCF    03.5
008A:  BCF    06.2
....................       } 
....................       if(x=4){ 
008B:  CLRF   40
008C:  MOVLW  04
008D:  MOVWF  3F
008E:  IORWF  40,W
008F:  BTFSC  03.2
0090:  GOTO   099
....................          output_HIGH(PIN_B3); 
0091:  BSF    03.5
0092:  BCF    06.3
0093:  BCF    03.5
0094:  BSF    06.3
....................          output_LOW(PIN_B3); 
0095:  BSF    03.5
0096:  BCF    06.3
0097:  BCF    03.5
0098:  BCF    06.3
....................           
....................       } 
....................        
....................        
....................        
....................      } 
0099:  INCF   3D,F
009A:  BTFSC  03.2
009B:  INCF   3E,F
009C:  GOTO   04F
....................        
....................        
....................        
....................        
....................        
....................        
....................        
....................        
....................        
....................        
....................        
....................        
....................        
....................        
....................        
....................        
....................        
....................        
....................        
....................        
....................        
....................        
....................    } 
009D:  GOTO   04D
....................     
....................     
....................     
....................     
.................... } 
009E:  SLEEP

Configuration Fuses:
   Word  1: 3F72   HS NOWDT PUT NOPROTECT BROWNOUT NOLVP NOCPD NOWRT NODEBUG
